; Function Attrs: mustprogress nofree norecurse nosync nounwind willreturn memory(argmem: readwrite) uwtable
define void @_ZN6marisa5Agent4swapERS0_(ptr nocapture noundef nonnull align 8 dereferenceable(48) %0, ptr nocapture noundef nonnull align 8 dereferenceable(48) %1) local_unnamed_addr #8 align 2 {
  %3 = load ptr, ptr %0, align 8
  %4 = load ptr, ptr %1, align 8
  store ptr %4, ptr %0, align 8
  store ptr %3, ptr %1, align 8
  %5 = getelementptr inbounds i8, ptr %0, i64 8
  %6 = getelementptr inbounds i8, ptr %1, i64 8
  %7 = load i64, ptr %5, align 8
  %8 = load i64, ptr %6, align 8
  store i64 %8, ptr %5, align 8
  store i64 %7, ptr %6, align 8
  %9 = getelementptr inbounds i8, ptr %0, i64 16
  %10 = getelementptr inbounds i8, ptr %1, i64 16
  %11 = load i64, ptr %9, align 8
  %12 = load i64, ptr %10, align 8
  store i64 %12, ptr %9, align 8
  store i64 %11, ptr %10, align 8
  %13 = getelementptr inbounds i8, ptr %0, i64 24
  %14 = getelementptr inbounds i8, ptr %1, i64 24
  %15 = load ptr, ptr %13, align 8
  %16 = load ptr, ptr %14, align 8
  store ptr %16, ptr %13, align 8
  store ptr %15, ptr %14, align 8
  %17 = getelementptr inbounds i8, ptr %0, i64 32
  %18 = getelementptr inbounds i8, ptr %1, i64 32
  %19 = load i32, ptr %17, align 8
  %20 = load i32, ptr %18, align 8
  store i32 %20, ptr %17, align 8
  store i32 %19, ptr %18, align 8
  %21 = getelementptr inbounds i8, ptr %0, i64 36
  %22 = getelementptr inbounds i8, ptr %1, i64 36
  %23 = load i32, ptr %21, align 4
  %24 = load i32, ptr %22, align 4
  store i32 %24, ptr %21, align 4
  store i32 %23, ptr %22, align 4
  %25 = getelementptr inbounds i8, ptr %0, i64 40
  %26 = getelementptr inbounds i8, ptr %1, i64 40
  %27 = load ptr, ptr %25, align 8
  %28 = load ptr, ptr %26, align 8
  store ptr %28, ptr %25, align 8
  store ptr %27, ptr %26, align 8
  ret void
}